; Function Attrs: nounwind uwtable
define noalias ptr @png_malloc_array(ptr noalias noundef %0, i32 noundef %1, i64 noundef %2) local_unnamed_addr #0 {
  %4 = icmp slt i32 %1, 1
  %5 = icmp eq i64 %2, 0
  %or.cond = or i1 %4, %5
  br i1 %or.cond, label %6, label %7

6:                                                ; preds = %3
  tail call void @png_error(ptr noundef %0, ptr noundef nonnull @.str) #14
  unreachable

7:                                                ; preds = %3
  %8 = zext nneg i32 %1 to i64
  %mul.i = tail call { i64, i1 } @llvm.umul.with.overflow.i64(i64 range(i64 1, 0) %2, i64 %8)
  %mul.ov.i = extractvalue { i64, i1 } %mul.i, 1
  br i1 %mul.ov.i, label %png_malloc_array_checked.exit, label %9

9:                                                ; preds = %7
  %10 = mul i64 %2, %8
  %.not.i.i = icmp eq ptr %0, null
  br i1 %.not.i.i, label %16, label %11

11:                                               ; preds = %9
  %12 = getelementptr inbounds nuw i8, ptr %0, i64 1064
  %13 = load ptr, ptr %12, align 8, !tbaa !37, !alias.scope !46
  %.not9.i.i = icmp eq ptr %13, null
  br i1 %.not9.i.i, label %16, label %14

14:                                               ; preds = %11
  %15 = tail call ptr %13(ptr noundef nonnull %0, i64 noundef %10) #12
  br label %png_malloc_array_checked.exit

16:                                               ; preds = %11, %9
  %17 = tail call noalias ptr @malloc(i64 noundef %10) #13
  br label %png_malloc_array_checked.exit

png_malloc_array_checked.exit:                    ; preds = %7, %14, %16
  %.0.i = phi ptr [ null, %7 ], [ %15, %14 ], [ %17, %16 ]
  ret ptr %.0.i
}